; Function Attrs: nounwind uwtable
define dso_local range(i32 -30, 1) i32 @archive_write_set_bytes_per_block(ptr noundef %0, i32 noundef %1) local_unnamed_addr #3 {
  %3 = tail call i32 @__archive_check_magic(ptr noundef %0, i32 noundef -1329217314, i32 noundef 1, ptr noundef nonnull @.str) #13
  %.not = icmp eq i32 %3, -30
  br i1 %.not, label %8, label %4

4:                                                ; preds = %2
  %5 = icmp slt i32 %1, 0
  br i1 %5, label %8, label %6

6:                                                ; preds = %4
  %7 = getelementptr inbounds nuw i8, ptr %0, i64 224
  store i32 %1, ptr %7, align 8, !tbaa !19
  br label %8

8:                                                ; preds = %4, %2, %6
  %.1 = phi i32 [ 0, %6 ], [ -30, %2 ], [ 0, %4 ]
  ret i32 %.1
}